; Function Attrs: mustprogress uwtable
define internal void @_ZN4absl12_GLOBAL__N_146FixedArrayExceptionSafety_CopyConstructor_Test8TestBodyEv(ptr nocapture nonnull readnone align 8 %this) unnamed_addr #3 align 2 personality ptr @__gxx_personality_v0 {
entry:
  %small = alloca %"class.absl::FixedArray", align 8
  %ref.tmp = alloca %"class.std::allocator.16", align 1
  %large = alloca %"class.absl::FixedArray", align 8
  %ref.tmp4 = alloca %"class.std::allocator.16", align 1
  call void @_ZN4absl10FixedArrayIN7testing13ThrowingValueILNS1_8TypeSpecE0EEELm25ESaIS4_EEC2EmRKS5_(ptr noundef nonnull align 8 dereferenceable(120) %small, i64 noundef 12, ptr noundef nonnull align 1 dereferenceable(1) %ref.tmp)
  invoke void @_ZN7testing16TestThrowingCtorIN4absl10FixedArrayINS_13ThrowingValueILNS_8TypeSpecE0EEELm25ESaIS5_EEEJRS7_EEEvDpOT0_(ptr noundef nonnull align 8 dereferenceable(120) %small)
          to label %invoke.cont3 unwind label %lpad2

invoke.cont3:                                     ; preds = %entry
  invoke void @_ZN4absl10FixedArrayIN7testing13ThrowingValueILNS1_8TypeSpecE0EEELm25ESaIS4_EEC2EmRKS5_(ptr noundef nonnull align 8 dereferenceable(120) %large, i64 noundef 50, ptr noundef nonnull align 1 dereferenceable(1) %ref.tmp4)
          to label %invoke.cont6 unwind label %lpad5

invoke.cont6:                                     ; preds = %invoke.cont3
  invoke void @_ZN7testing16TestThrowingCtorIN4absl10FixedArrayINS_13ThrowingValueILNS_8TypeSpecE0EEELm25ESaIS5_EEEJRS7_EEEvDpOT0_(ptr noundef nonnull align 8 dereferenceable(120) %large)
          to label %invoke.cont8 unwind label %lpad7

invoke.cont8:                                     ; preds = %invoke.cont6
  %data_.i.i = getelementptr inbounds i8, ptr %large, i64 112
  %size_alloc_.i.i.i = getelementptr inbounds i8, ptr %large, i64 104
  %0 = load i64, ptr %size_alloc_.i.i.i, align 8
  %cmp.not9.i = icmp eq i64 %0, 0
  br i1 %cmp.not9.i, label %_ZN4absl10FixedArrayIN7testing13ThrowingValueILNS1_8TypeSpecE0EEELm25ESaIS4_EED2Ev.exit, label %invoke.cont5.i.preheader

invoke.cont5.i.preheader:                         ; preds = %invoke.cont8
  %1 = load ptr, ptr %data_.i.i, align 8
  br label %invoke.cont5.i

invoke.cont5.i:                                   ; preds = %invoke.cont5.i.preheader, %_ZNSt16allocator_traitsISaIN7testing13ThrowingValueILNS0_8TypeSpecE0EEEEE7destroyIS3_EEvRS4_PT_.exit.i
  %cur.010.i = phi ptr [ %incdec.ptr.i, %_ZNSt16allocator_traitsISaIN7testing13ThrowingValueILNS0_8TypeSpecE0EEEEE7destroyIS3_EEvRS4_PT_.exit.i ], [ %1, %invoke.cont5.i.preheader ]
  invoke void @_ZN7testing19exceptions_internal18ConstructorTracker16ObjectDestructedEPv(ptr noundef nonnull %cur.010.i)
          to label %_ZNSt16allocator_traitsISaIN7testing13ThrowingValueILNS0_8TypeSpecE0EEEEE7destroyIS3_EEvRS4_PT_.exit.i unwind label %terminate.lpad.i.i.i.i.i

terminate.lpad.i.i.i.i.i:                         ; preds = %invoke.cont5.i
  %2 = landingpad { ptr, i32 }
          catch ptr null
  %3 = extractvalue { ptr, i32 } %2, 0
  call void @__clang_call_terminate(ptr %3) #21
  unreachable

_ZNSt16allocator_traitsISaIN7testing13ThrowingValueILNS0_8TypeSpecE0EEEEE7destroyIS3_EEvRS4_PT_.exit.i: ; preds = %invoke.cont5.i
  %incdec.ptr.i = getelementptr inbounds i8, ptr %cur.010.i, i64 4
  %4 = load ptr, ptr %data_.i.i, align 8
  %5 = load i64, ptr %size_alloc_.i.i.i, align 8
  %add.ptr.i.i = getelementptr inbounds %"class.testing::ThrowingValue", ptr %4, i64 %5
  %cmp.not.i = icmp eq ptr %incdec.ptr.i, %add.ptr.i.i
  br i1 %cmp.not.i, label %for.end.i, label %invoke.cont5.i, !llvm.loop !5

for.end.i:                                        ; preds = %_ZNSt16allocator_traitsISaIN7testing13ThrowingValueILNS0_8TypeSpecE0EEEEE7destroyIS3_EEvRS4_PT_.exit.i
  %6 = icmp ult i64 %5, 26
  br i1 %6, label %_ZN4absl10FixedArrayIN7testing13ThrowingValueILNS1_8TypeSpecE0EEELm25ESaIS4_EED2Ev.exit, label %invoke.cont11.i.i

invoke.cont11.i.i:                                ; preds = %for.end.i
  call void @_ZdlPv(ptr noundef %4) #19
  br label %_ZN4absl10FixedArrayIN7testing13ThrowingValueILNS1_8TypeSpecE0EEELm25ESaIS4_EED2Ev.exit

_ZN4absl10FixedArrayIN7testing13ThrowingValueILNS1_8TypeSpecE0EEELm25ESaIS4_EED2Ev.exit: ; preds = %invoke.cont8, %for.end.i, %invoke.cont11.i.i
  %data_.i.i3 = getelementptr inbounds i8, ptr %small, i64 112
  %size_alloc_.i.i.i4 = getelementptr inbounds i8, ptr %small, i64 104
  %7 = load i64, ptr %size_alloc_.i.i.i4, align 8
  %cmp.not9.i5 = icmp eq i64 %7, 0
  br i1 %cmp.not9.i5, label %_ZN4absl10FixedArrayIN7testing13ThrowingValueILNS1_8TypeSpecE0EEELm25ESaIS4_EED2Ev.exit15, label %invoke.cont5.i6.preheader

invoke.cont5.i6.preheader:                        ; preds = %_ZN4absl10FixedArrayIN7testing13ThrowingValueILNS1_8TypeSpecE0EEELm25ESaIS4_EED2Ev.exit
  %8 = load ptr, ptr %data_.i.i3, align 8
  br label %invoke.cont5.i6

invoke.cont5.i6:                                  ; preds = %invoke.cont5.i6.preheader, %_ZNSt16allocator_traitsISaIN7testing13ThrowingValueILNS0_8TypeSpecE0EEEEE7destroyIS3_EEvRS4_PT_.exit.i9
  %cur.010.i7 = phi ptr [ %incdec.ptr.i10, %_ZNSt16allocator_traitsISaIN7testing13ThrowingValueILNS0_8TypeSpecE0EEEEE7destroyIS3_EEvRS4_PT_.exit.i9 ], [ %8, %invoke.cont5.i6.preheader ]
  invoke void @_ZN7testing19exceptions_internal18ConstructorTracker16ObjectDestructedEPv(ptr noundef nonnull %cur.010.i7)
          to label %_ZNSt16allocator_traitsISaIN7testing13ThrowingValueILNS0_8TypeSpecE0EEEEE7destroyIS3_EEvRS4_PT_.exit.i9 unwind label %terminate.lpad.i.i.i.i.i8

terminate.lpad.i.i.i.i.i8:                        ; preds = %invoke.cont5.i6
  %9 = landingpad { ptr, i32 }
          catch ptr null
  %10 = extractvalue { ptr, i32 } %9, 0
  call void @__clang_call_terminate(ptr %10) #21
  unreachable

_ZNSt16allocator_traitsISaIN7testing13ThrowingValueILNS0_8TypeSpecE0EEEEE7destroyIS3_EEvRS4_PT_.exit.i9: ; preds = %invoke.cont5.i6
  %incdec.ptr.i10 = getelementptr inbounds i8, ptr %cur.010.i7, i64 4
  %11 = load ptr, ptr %data_.i.i3, align 8
  %12 = load i64, ptr %size_alloc_.i.i.i4, align 8
  %add.ptr.i.i11 = getelementptr inbounds %"class.testing::ThrowingValue", ptr %11, i64 %12
  %cmp.not.i12 = icmp eq ptr %incdec.ptr.i10, %add.ptr.i.i11
  br i1 %cmp.not.i12, label %for.end.i13, label %invoke.cont5.i6, !llvm.loop !5

for.end.i13:                                      ; preds = %_ZNSt16allocator_traitsISaIN7testing13ThrowingValueILNS0_8TypeSpecE0EEEEE7destroyIS3_EEvRS4_PT_.exit.i9
  %13 = icmp ult i64 %12, 26
  br i1 %13, label %_ZN4absl10FixedArrayIN7testing13ThrowingValueILNS1_8TypeSpecE0EEELm25ESaIS4_EED2Ev.exit15, label %invoke.cont11.i.i14

invoke.cont11.i.i14:                              ; preds = %for.end.i13
  call void @_ZdlPv(ptr noundef %11) #19
  br label %_ZN4absl10FixedArrayIN7testing13ThrowingValueILNS1_8TypeSpecE0EEELm25ESaIS4_EED2Ev.exit15

_ZN4absl10FixedArrayIN7testing13ThrowingValueILNS1_8TypeSpecE0EEELm25ESaIS4_EED2Ev.exit15: ; preds = %_ZN4absl10FixedArrayIN7testing13ThrowingValueILNS1_8TypeSpecE0EEELm25ESaIS4_EED2Ev.exit, %for.end.i13, %invoke.cont11.i.i14
  ret void

lpad2:                                            ; preds = %entry
  %14 = landingpad { ptr, i32 }
          cleanup
  br label %ehcleanup

lpad5:                                            ; preds = %invoke.cont3
  %15 = landingpad { ptr, i32 }
          cleanup
  br label %ehcleanup

lpad7:                                            ; preds = %invoke.cont6
  %16 = landingpad { ptr, i32 }
          cleanup
  call void @_ZN4absl10FixedArrayIN7testing13ThrowingValueILNS1_8TypeSpecE0EEELm25ESaIS4_EED2Ev(ptr noundef nonnull align 8 dereferenceable(120) %large) #18
  br label %ehcleanup

ehcleanup:                                        ; preds = %lpad7, %lpad5, %lpad2
  %.pn = phi { ptr, i32 } [ %16, %lpad7 ], [ %15, %lpad5 ], [ %14, %lpad2 ]
  call void @_ZN4absl10FixedArrayIN7testing13ThrowingValueILNS1_8TypeSpecE0EEELm25ESaIS4_EED2Ev(ptr noundef nonnull align 8 dereferenceable(120) %small) #18
  resume { ptr, i32 } %.pn
}